; Function Attrs: mustprogress nounwind uwtable
define void @_ZN32pxrInternal_v0_24__pxrReserved__16HdVtBufferSourceD2Ev(ptr noundef nonnull align 8 dereferenceable(64) %0) unnamed_addr #5 align 2 personality ptr @__gxx_personality_v0 {
  %2 = getelementptr inbounds nuw i8, ptr %0, i64 32
  %3 = load ptr, ptr %2, align 8
  %4 = ptrtoint ptr %3 to i64
  %.not.i.i = icmp eq ptr %3, null
  %5 = and i64 %4, 3
  %6 = icmp eq i64 %5, 3
  %or.cond.i.i = or i1 %.not.i.i, %6
  br i1 %or.cond.i.i, label %_ZN32pxrInternal_v0_24__pxrReserved__7VtValueD2Ev.exit, label %7

7:                                                ; preds = %1
  %8 = getelementptr inbounds nuw i8, ptr %0, i64 24
  %9 = and i64 %4, -8
  %10 = inttoptr i64 %9 to ptr
  %11 = getelementptr inbounds nuw i8, ptr %10, i64 32
  %12 = load ptr, ptr %11, align 8
  invoke void %12(ptr noundef nonnull align 8 dereferenceable(16) %8)
          to label %_ZN32pxrInternal_v0_24__pxrReserved__7VtValueD2Ev.exit unwind label %13

13:                                               ; preds = %7
  %14 = landingpad { ptr, i32 }
          catch ptr null
  %15 = extractvalue { ptr, i32 } %14, 0
  tail call void @__clang_call_terminate(ptr %15) #19
  unreachable

_ZN32pxrInternal_v0_24__pxrReserved__7VtValueD2Ev.exit: ; preds = %1, %7
  store ptr null, ptr %2, align 8
  %16 = getelementptr inbounds nuw i8, ptr %0, i64 16
  %17 = load ptr, ptr %16, align 8
  %18 = ptrtoint ptr %17 to i64
  %19 = and i64 %18, 7
  %.not.i.i1 = icmp eq i64 %19, 0
  br i1 %.not.i.i1, label %_ZN32pxrInternal_v0_24__pxrReserved__7TfTokenD2Ev.exit, label %20

20:                                               ; preds = %_ZN32pxrInternal_v0_24__pxrReserved__7VtValueD2Ev.exit
  %21 = and i64 %18, -8
  %22 = inttoptr i64 %21 to ptr
  %23 = atomicrmw sub ptr %22, i32 2 release, align 4
  br label %_ZN32pxrInternal_v0_24__pxrReserved__7TfTokenD2Ev.exit

_ZN32pxrInternal_v0_24__pxrReserved__7TfTokenD2Ev.exit: ; preds = %_ZN32pxrInternal_v0_24__pxrReserved__7VtValueD2Ev.exit, %20
  tail call void @_ZN32pxrInternal_v0_24__pxrReserved__14HdBufferSourceD2Ev(ptr noundef nonnull align 8 dereferenceable(12) %0) #18
  ret void
}